; Function Attrs: mustprogress nofree norecurse nosync nounwind willreturn memory(write, argmem: readwrite, inaccessiblemem: none) uwtable
define void @_ZN3net22CryptoHandshakeMessageC2EOS0_(ptr noundef nonnull align 8 dereferenceable(72) initializes((0, 4), (24, 32)) %0, ptr noundef nonnull align 8 dereferenceable(72) %1) unnamed_addr #2 align 2 personality ptr @__gxx_personality_v0 {
  %3 = load i32, ptr %1, align 8, !tbaa !3
  store i32 %3, ptr %0, align 8, !tbaa !3
  %4 = getelementptr inbounds nuw i8, ptr %0, i64 16
  %5 = getelementptr inbounds nuw i8, ptr %1, i64 24
  %6 = load ptr, ptr %5, align 8, !tbaa !27
  %.not.i.i.i.i = icmp eq ptr %6, null
  br i1 %.not.i.i.i.i, label %21, label %7

7:                                                ; preds = %2
  %8 = getelementptr inbounds nuw i8, ptr %1, i64 16
  %9 = load i32, ptr %8, align 8, !tbaa !26
  %10 = getelementptr inbounds nuw i8, ptr %0, i64 24
  store ptr %6, ptr %10, align 8, !tbaa !27
  %11 = getelementptr inbounds nuw i8, ptr %1, i64 32
  %12 = load ptr, ptr %11, align 8, !tbaa !28
  %13 = getelementptr inbounds nuw i8, ptr %0, i64 32
  store ptr %12, ptr %13, align 8, !tbaa !28
  %14 = getelementptr inbounds nuw i8, ptr %1, i64 40
  %15 = load ptr, ptr %14, align 8, !tbaa !29
  %16 = getelementptr inbounds nuw i8, ptr %0, i64 40
  store ptr %15, ptr %16, align 8, !tbaa !29
  %17 = getelementptr inbounds nuw i8, ptr %6, i64 8
  store ptr %4, ptr %17, align 8, !tbaa !41
  %18 = getelementptr inbounds nuw i8, ptr %1, i64 48
  %19 = load i64, ptr %18, align 8, !tbaa !30
  %20 = getelementptr inbounds nuw i8, ptr %0, i64 48
  store i64 %19, ptr %20, align 8, !tbaa !30
  store ptr null, ptr %5, align 8, !tbaa !27
  store ptr %8, ptr %11, align 8, !tbaa !28
  store ptr %8, ptr %14, align 8, !tbaa !29
  store i64 0, ptr %18, align 8, !tbaa !30
  br label %_ZNSt3mapIjNSt7__cxx1112basic_stringIcSt11char_traitsIcESaIcEEESt4lessIjESaISt4pairIKjS5_EEEC2EOSC_.exit

21:                                               ; preds = %2
  %22 = getelementptr inbounds nuw i8, ptr %0, i64 24
  store ptr null, ptr %22, align 8, !tbaa !27
  %23 = getelementptr inbounds nuw i8, ptr %0, i64 32
  store ptr %4, ptr %23, align 8, !tbaa !28
  %24 = getelementptr inbounds nuw i8, ptr %0, i64 40
  store ptr %4, ptr %24, align 8, !tbaa !29
  %25 = getelementptr inbounds nuw i8, ptr %0, i64 48
  store i64 0, ptr %25, align 8, !tbaa !30
  br label %_ZNSt3mapIjNSt7__cxx1112basic_stringIcSt11char_traitsIcESaIcEEESt4lessIjESaISt4pairIKjS5_EEEC2EOSC_.exit

_ZNSt3mapIjNSt7__cxx1112basic_stringIcSt11char_traitsIcESaIcEEESt4lessIjESaISt4pairIKjS5_EEEC2EOSC_.exit: ; preds = %7, %21
  %.sink.i.i.i.i = phi i32 [ 0, %21 ], [ %9, %7 ]
  store i32 %.sink.i.i.i.i, ptr %4, align 8, !tbaa !26
  %26 = getelementptr inbounds nuw i8, ptr %0, i64 56
  %27 = getelementptr inbounds nuw i8, ptr %1, i64 56
  %28 = load i64, ptr %27, align 8, !tbaa !39
  store i64 %28, ptr %26, align 8, !tbaa !39
  %29 = getelementptr inbounds nuw i8, ptr %0, i64 64
  %30 = getelementptr inbounds nuw i8, ptr %1, i64 64
  %31 = load i64, ptr %30, align 8, !tbaa !42
  store i64 %31, ptr %29, align 8, !tbaa !42
  store ptr null, ptr %30, align 8, !tbaa !42
  ret void
}